; Function Attrs: mustprogress nofree norecurse nosync nounwind willreturn memory(read, inaccessiblemem: none) uwtable
define dso_local noundef range(i32 0, 513) i32 @_ZNK4llvm10X86TTIImpl26getLoadStoreVecRegBitWidthEj(ptr noundef nonnull readonly align 8 captures(none) dereferenceable(72) %0, i32 noundef %1) local_unnamed_addr #0 align 2 {
  %3 = getelementptr inbounds nuw i8, ptr %0, i64 16
  %4 = load ptr, ptr %3, align 8
  %5 = getelementptr inbounds nuw i8, ptr %4, i64 592
  %6 = load i32, ptr %5, align 8
  %7 = getelementptr inbounds nuw i8, ptr %4, i64 304
  %8 = load i32, ptr %7, align 8
  %9 = icmp sgt i32 %8, 8
  br i1 %9, label %10, label %15

10:                                               ; preds = %2
  %11 = getelementptr inbounds nuw i8, ptr %4, i64 353
  %12 = load i8, ptr %11, align 1
  %13 = trunc i8 %12 to i1
  %14 = icmp ugt i32 %6, 511
  %or.cond.i = and i1 %14, %13
  br i1 %or.cond.i, label %_ZNK4llvm10X86TTIImpl19getRegisterBitWidthENS_19TargetTransformInfo12RegisterKindE.exit, label %15

15:                                               ; preds = %10, %2
  %16 = icmp sgt i32 %8, 6
  %17 = icmp ugt i32 %6, 255
  %or.cond3.i = and i1 %17, %16
  br i1 %or.cond3.i, label %_ZNK4llvm10X86TTIImpl19getRegisterBitWidthENS_19TargetTransformInfo12RegisterKindE.exit, label %18

18:                                               ; preds = %15
  %19 = icmp sgt i32 %8, 0
  %20 = icmp ugt i32 %6, 127
  %or.cond5.i = and i1 %20, %19
  %21 = select i1 %or.cond5.i, i32 128, i32 0
  br label %_ZNK4llvm10X86TTIImpl19getRegisterBitWidthENS_19TargetTransformInfo12RegisterKindE.exit

_ZNK4llvm10X86TTIImpl19getRegisterBitWidthENS_19TargetTransformInfo12RegisterKindE.exit: ; preds = %10, %15, %18
  %.pn.i = phi i32 [ 512, %10 ], [ 256, %15 ], [ %21, %18 ]
  ret i32 %.pn.i
}